target datalayout = "e-m:e-p270:32:32-p271:32:32-p272:64:64-i64:64-i128:128-f80:128-n8:16:32:64-S128"
target triple = "x86_64-pc-linux-gnu"

%"class.boost::container::pmr::monotonic_buffer_resource" = type { %"class.boost::container::pmr::memory_resource", %"class.boost::container::pmr::block_slist", ptr, i64, i64, ptr, i64 }
%"class.boost::container::pmr::memory_resource" = type { ptr }
%"class.boost::container::pmr::block_slist" = type { %"class.boost::container::pmr::block_slist_base", ptr }
%"class.boost::container::pmr::block_slist_base" = type { %"struct.boost::container::pmr::slist_node" }
%"struct.boost::container::pmr::slist_node" = type { ptr }

; Function Attrs: mustprogress nounwind uwtable
define void @_ZN5boost9container3pmr25monotonic_buffer_resource20increase_next_bufferEv(ptr noundef nonnull align 8 dereferenceable(64) %0) #0 align 2 {
  %2 = alloca ptr, align 8
  store ptr %0, ptr %2, align 8, !tbaa !3
  %3 = load ptr, ptr %2, align 8
  %4 = getelementptr inbounds nuw %"class.boost::container::pmr::monotonic_buffer_resource", ptr %3, i32 0, i32 4
  %5 = load i64, ptr %4, align 8, !tbaa !7
  %6 = icmp ult i64 9223372036854775807, %5
  br i1 %6, label %7, label %8

7:                                                ; preds = %1
  br label %12

8:                                                ; preds = %1
  %9 = getelementptr inbounds nuw %"class.boost::container::pmr::monotonic_buffer_resource", ptr %3, i32 0, i32 4
  %10 = load i64, ptr %9, align 8, !tbaa !7
  %11 = mul i64 %10, 2
  br label %12

12:                                               ; preds = %8, %7
  %13 = phi i64 [ -1, %7 ], [ %11, %8 ]
  %14 = getelementptr inbounds nuw %"class.boost::container::pmr::monotonic_buffer_resource", ptr %3, i32 0, i32 4
  store i64 %13, ptr %14, align 8, !tbaa !7
  ret void
}