; Function Attrs: mustprogress nofree norecurse nosync nounwind willreturn memory(argmem: readwrite) uwtable
define void @_ZN5boost9container3pmr25monotonic_buffer_resource20increase_next_bufferEv(ptr nocapture noundef nonnull align 8 dereferenceable(64) %0) local_unnamed_addr #0 align 2 {
  %2 = getelementptr inbounds nuw i8, ptr %0, i64 40
  %3 = load i64, ptr %2, align 8, !tbaa !3
  %4 = shl nuw i64 %3, 1
  %.inv = icmp sgt i64 %3, -1
  %spec.select = select i1 %.inv, i64 %4, i64 -1
  store i64 %spec.select, ptr %2, align 8, !tbaa !3
  ret void
}